target datalayout = "e-m:e-p270:32:32-p271:32:32-p272:64:64-i64:64-i128:128-f80:128-n8:16:32:64-S128"
target triple = "x86_64-pc-linux-gnu"

%"class.std::__cxx11::basic_string" = type { %"struct.std::__cxx11::basic_string<char>::_Alloc_hider", i64, %union.anon }
%"struct.std::__cxx11::basic_string<char>::_Alloc_hider" = type { ptr }
%union.anon = type { i64, [8 x i8] }
%"class.std::vector.19" = type { %"struct.std::_Vector_base.20" }
%"struct.std::_Vector_base.20" = type { %"struct.std::_Vector_base<cv::Ptr<cv::datasets::TRACK_votObj>, std::allocator<cv::Ptr<cv::datasets::TRACK_votObj>>>::_Vector_impl" }
%"struct.std::_Vector_base<cv::Ptr<cv::datasets::TRACK_votObj>, std::allocator<cv::Ptr<cv::datasets::TRACK_votObj>>>::_Vector_impl" = type { %"struct.std::_Vector_base<cv::Ptr<cv::datasets::TRACK_votObj>, std::allocator<cv::Ptr<cv::datasets::TRACK_votObj>>>::_Vector_impl_data" }
%"struct.std::_Vector_base<cv::Ptr<cv::datasets::TRACK_votObj>, std::allocator<cv::Ptr<cv::datasets::TRACK_votObj>>>::_Vector_impl_data" = type { ptr, ptr, ptr }
%"struct.cv::Ptr" = type { %"class.std::shared_ptr" }
%"class.std::shared_ptr" = type { %"class.std::__shared_ptr" }
%"class.std::__shared_ptr" = type { ptr, %"class.std::__shared_count" }
%"class.std::__shared_count" = type { ptr }
%"struct.cv::datasets::TRACK_votObj" = type { i32, %"class.std::__cxx11::basic_string", %"class.std::vector.24" }
%"class.std::vector.24" = type { %"struct.std::_Vector_base.25" }
%"struct.std::_Vector_base.25" = type { %"struct.std::_Vector_base<cv::Point_<double>, std::allocator<cv::Point_<double>>>::_Vector_impl" }
%"struct.std::_Vector_base<cv::Point_<double>, std::allocator<cv::Point_<double>>>::_Vector_impl" = type { %"struct.std::_Vector_base<cv::Point_<double>, std::allocator<cv::Point_<double>>>::_Vector_impl_data" }
%"struct.std::_Vector_base<cv::Point_<double>, std::allocator<cv::Point_<double>>>::_Vector_impl_data" = type { ptr, ptr, ptr }
%"class.cv::datasets::TRACK_vot" = type { %"class.cv::datasets::Dataset", %"class.std::vector.5", i32, i32 }
%"class.cv::datasets::Dataset" = type { ptr, %"class.std::vector", %"class.std::vector", %"class.std::vector", %"class.std::vector.0" }
%"class.std::vector" = type { %"struct.std::_Vector_base" }
%"struct.std::_Vector_base" = type { %"struct.std::_Vector_base<std::vector<cv::Ptr<cv::datasets::Object>>, std::allocator<std::vector<cv::Ptr<cv::datasets::Object>>>>::_Vector_impl" }
%"struct.std::_Vector_base<std::vector<cv::Ptr<cv::datasets::Object>>, std::allocator<std::vector<cv::Ptr<cv::datasets::Object>>>>::_Vector_impl" = type { %"struct.std::_Vector_base<std::vector<cv::Ptr<cv::datasets::Object>>, std::allocator<std::vector<cv::Ptr<cv::datasets::Object>>>>::_Vector_impl_data" }
%"struct.std::_Vector_base<std::vector<cv::Ptr<cv::datasets::Object>>, std::allocator<std::vector<cv::Ptr<cv::datasets::Object>>>>::_Vector_impl_data" = type { ptr, ptr, ptr }
%"class.std::vector.0" = type { %"struct.std::_Vector_base.1" }
%"struct.std::_Vector_base.1" = type { %"struct.std::_Vector_base<cv::Ptr<cv::datasets::Object>, std::allocator<cv::Ptr<cv::datasets::Object>>>::_Vector_impl" }
%"struct.std::_Vector_base<cv::Ptr<cv::datasets::Object>, std::allocator<cv::Ptr<cv::datasets::Object>>>::_Vector_impl" = type { %"struct.std::_Vector_base<cv::Ptr<cv::datasets::Object>, std::allocator<cv::Ptr<cv::datasets::Object>>>::_Vector_impl_data" }
%"struct.std::_Vector_base<cv::Ptr<cv::datasets::Object>, std::allocator<cv::Ptr<cv::datasets::Object>>>::_Vector_impl_data" = type { ptr, ptr, ptr }
%"class.std::vector.5" = type { %"struct.std::_Vector_base.6" }
%"struct.std::_Vector_base.6" = type { %"struct.std::_Vector_base<std::vector<cv::Ptr<cv::datasets::TRACK_votObj>>, std::allocator<std::vector<cv::Ptr<cv::datasets::TRACK_votObj>>>>::_Vector_impl" }
%"struct.std::_Vector_base<std::vector<cv::Ptr<cv::datasets::TRACK_votObj>>, std::allocator<std::vector<cv::Ptr<cv::datasets::TRACK_votObj>>>>::_Vector_impl" = type { %"struct.std::_Vector_base<std::vector<cv::Ptr<cv::datasets::TRACK_votObj>>, std::allocator<std::vector<cv::Ptr<cv::datasets::TRACK_votObj>>>>::_Vector_impl_data" }
%"struct.std::_Vector_base<std::vector<cv::Ptr<cv::datasets::TRACK_votObj>>, std::allocator<std::vector<cv::Ptr<cv::datasets::TRACK_votObj>>>>::_Vector_impl_data" = type { ptr, ptr, ptr }
%"class.cv::Mat" = type { i32, i32, i32, i32, ptr, ptr, ptr, ptr, ptr, ptr, %"struct.cv::MatSize", %"struct.cv::MatStep" }
%"struct.cv::MatSize" = type { ptr }
%"struct.cv::MatStep" = type { ptr, [2 x i64] }

; Function Attrs: mustprogress nounwind uwtable
define linkonce_odr hidden noundef ptr @_ZNKSt12__shared_ptrIN2cv8datasets12TRACK_votObjELN9__gnu_cxx12_Lock_policyE2EE3getEv(ptr noundef nonnull align 8 dereferenceable(16) %0) #4 comdat align 2 {
  %2 = alloca ptr, align 8
  store ptr %0, ptr %2, align 8
  %3 = load ptr, ptr %2, align 8
  %4 = getelementptr inbounds %"class.std::__shared_ptr", ptr %3, i32 0, i32 0
  %5 = load ptr, ptr %4, align 8
  ret ptr %5
}

; Function Attrs: mustprogress nounwind uwtable
define linkonce_odr hidden noundef ptr @_ZNK2cv3PtrINS_8datasets12TRACK_votObjEEptEv(ptr noundef nonnull align 8 dereferenceable(16) %0) #4 comdat align 2 {
  %2 = alloca ptr, align 8
  store ptr %0, ptr %2, align 8
  %3 = load ptr, ptr %2, align 8
  %4 = call noundef ptr @_ZNKSt12__shared_ptrIN2cv8datasets12TRACK_votObjELN9__gnu_cxx12_Lock_policyE2EE3getEv(ptr noundef nonnull align 8 dereferenceable(16) %3) #11
  ret ptr %4
}

; Function Attrs: mustprogress nounwind uwtable
define linkonce_odr hidden noundef nonnull align 8 dereferenceable(16) ptr @_ZNSt6vectorIN2cv3PtrINS0_8datasets12TRACK_votObjEEESaIS4_EEixEm(ptr noundef nonnull align 8 dereferenceable(24) %0, i64 noundef %1) #4 comdat align 2 {
  %3 = alloca ptr, align 8
  %4 = alloca i64, align 8
  store ptr %0, ptr %3, align 8
  store i64 %1, ptr %4, align 8
  %5 = load ptr, ptr %3, align 8
  %6 = getelementptr inbounds %"struct.std::_Vector_base.20", ptr %5, i32 0, i32 0
  %7 = getelementptr inbounds %"struct.std::_Vector_base<cv::Ptr<cv::datasets::TRACK_votObj>, std::allocator<cv::Ptr<cv::datasets::TRACK_votObj>>>::_Vector_impl_data", ptr %6, i32 0, i32 0
  %8 = load ptr, ptr %7, align 8
  %9 = load i64, ptr %4, align 8
  %10 = getelementptr inbounds %"struct.cv::Ptr", ptr %8, i64 %9
  ret ptr %10
}

; Function Attrs: mustprogress nounwind uwtable
define linkonce_odr hidden noundef i64 @_ZNKSt6vectorIN2cv3PtrINS0_8datasets12TRACK_votObjEEESaIS4_EE4sizeEv(ptr noundef nonnull align 8 dereferenceable(24) %0) #4 comdat align 2 {
  %2 = alloca ptr, align 8
  store ptr %0, ptr %2, align 8
  %3 = load ptr, ptr %2, align 8
  %4 = getelementptr inbounds %"struct.std::_Vector_base.20", ptr %3, i32 0, i32 0
  %5 = getelementptr inbounds %"struct.std::_Vector_base<cv::Ptr<cv::datasets::TRACK_votObj>, std::allocator<cv::Ptr<cv::datasets::TRACK_votObj>>>::_Vector_impl_data", ptr %4, i32 0, i32 1
  %6 = load ptr, ptr %5, align 8
  %7 = getelementptr inbounds %"struct.std::_Vector_base.20", ptr %3, i32 0, i32 0
  %8 = getelementptr inbounds %"struct.std::_Vector_base<cv::Ptr<cv::datasets::TRACK_votObj>, std::allocator<cv::Ptr<cv::datasets::TRACK_votObj>>>::_Vector_impl_data", ptr %7, i32 0, i32 0
  %9 = load ptr, ptr %8, align 8
  %10 = ptrtoint ptr %6 to i64
  %11 = ptrtoint ptr %9 to i64
  %12 = sub i64 %10, %11
  %13 = sdiv exact i64 %12, 16
  ret i64 %13
}

; Function Attrs: mustprogress nounwind uwtable
define linkonce_odr hidden noundef nonnull align 8 dereferenceable(24) ptr @_ZNSt6vectorIS_IN2cv3PtrINS0_8datasets12TRACK_votObjEEESaIS4_EESaIS6_EEixEm(ptr noundef nonnull align 8 dereferenceable(24) %0, i64 noundef %1) #4 comdat align 2 {
  %3 = alloca ptr, align 8
  %4 = alloca i64, align 8
  store ptr %0, ptr %3, align 8
  store i64 %1, ptr %4, align 8
  %5 = load ptr, ptr %3, align 8
  %6 = getelementptr inbounds %"struct.std::_Vector_base.6", ptr %5, i32 0, i32 0
  %7 = getelementptr inbounds %"struct.std::_Vector_base<std::vector<cv::Ptr<cv::datasets::TRACK_votObj>>, std::allocator<std::vector<cv::Ptr<cv::datasets::TRACK_votObj>>>>::_Vector_impl_data", ptr %6, i32 0, i32 0
  %8 = load ptr, ptr %7, align 8
  %9 = load i64, ptr %4, align 8
  %10 = getelementptr inbounds %"class.std::vector.19", ptr %8, i64 %9
  ret ptr %10
}

; Function Attrs: mustprogress uwtable
define hidden noundef zeroext i1 @_ZN2cv8datasets13TRACK_votImpl12getNextFrameERNS_3MatE(ptr noundef nonnull align 8 dereferenceable(136) %0, ptr noundef nonnull align 8 dereferenceable(96) %1) unnamed_addr #0 align 2 personality ptr @__gxx_personality_v0 {
  %3 = alloca i1, align 1
  %4 = alloca ptr, align 8
  %5 = alloca ptr, align 8
  %6 = alloca %"class.std::__cxx11::basic_string", align 8
  %7 = alloca %"class.cv::Mat", align 8
  %8 = alloca ptr, align 8
  %9 = alloca i32, align 4
  store ptr %0, ptr %4, align 8
  store ptr %1, ptr %5, align 8
  %10 = load ptr, ptr %4, align 8
  %11 = getelementptr inbounds %"class.cv::datasets::TRACK_vot", ptr %10, i32 0, i32 3
  %12 = load i32, ptr %11, align 4
  %13 = getelementptr inbounds %"class.cv::datasets::TRACK_vot", ptr %10, i32 0, i32 1
  %14 = getelementptr inbounds %"class.cv::datasets::TRACK_vot", ptr %10, i32 0, i32 2
  %15 = load i32, ptr %14, align 8
  %16 = sub nsw i32 %15, 1
  %17 = sext i32 %16 to i64
  %18 = call noundef nonnull align 8 dereferenceable(24) ptr @_ZNSt6vectorIS_IN2cv3PtrINS0_8datasets12TRACK_votObjEEESaIS4_EESaIS6_EEixEm(ptr noundef nonnull align 8 dereferenceable(24) %13, i64 noundef %17) #11
  %19 = call noundef i64 @_ZNKSt6vectorIN2cv3PtrINS0_8datasets12TRACK_votObjEEESaIS4_EE4sizeEv(ptr noundef nonnull align 8 dereferenceable(24) %18) #11
  %20 = trunc i64 %19 to i32
  %21 = icmp sge i32 %12, %20
  br i1 %21, label %22, label %23

22:                                               ; preds = %2
  store i1 false, ptr %3, align 1
  br label %56

23:                                               ; preds = %2
  %24 = getelementptr inbounds %"class.cv::datasets::TRACK_vot", ptr %10, i32 0, i32 1
  %25 = getelementptr inbounds %"class.cv::datasets::TRACK_vot", ptr %10, i32 0, i32 2
  %26 = load i32, ptr %25, align 8
  %27 = sub nsw i32 %26, 1
  %28 = sext i32 %27 to i64
  %29 = call noundef nonnull align 8 dereferenceable(24) ptr @_ZNSt6vectorIS_IN2cv3PtrINS0_8datasets12TRACK_votObjEEESaIS4_EESaIS6_EEixEm(ptr noundef nonnull align 8 dereferenceable(24) %24, i64 noundef %28) #11
  %30 = getelementptr inbounds %"class.cv::datasets::TRACK_vot", ptr %10, i32 0, i32 3
  %31 = load i32, ptr %30, align 4
  %32 = sext i32 %31 to i64
  %33 = call noundef nonnull align 8 dereferenceable(16) ptr @_ZNSt6vectorIN2cv3PtrINS0_8datasets12TRACK_votObjEEESaIS4_EEixEm(ptr noundef nonnull align 8 dereferenceable(24) %29, i64 noundef %32) #11
  %34 = call noundef ptr @_ZNK2cv3PtrINS_8datasets12TRACK_votObjEEptEv(ptr noundef nonnull align 8 dereferenceable(16) %33) #11
  %35 = getelementptr inbounds %"struct.cv::datasets::TRACK_votObj", ptr %34, i32 0, i32 1
  call void @_ZNSt7__cxx1112basic_stringIcSt11char_traitsIcESaIcEEC1ERKS4_(ptr noundef nonnull align 8 dereferenceable(32) %6, ptr noundef nonnull align 8 dereferenceable(32) %35)
  invoke void @_ZN2cv6imreadERKNSt7__cxx1112basic_stringIcSt11char_traitsIcESaIcEEEi(ptr dead_on_unwind writable sret(%"class.cv::Mat") align 8 %7, ptr noundef nonnull align 8 dereferenceable(32) %6, i32 noundef 1)
          to label %36 unwind label %47

36:                                               ; preds = %23
  %37 = load ptr, ptr %5, align 8
  %38 = invoke noundef nonnull align 8 dereferenceable(96) ptr @_ZN2cv3MataSEOS0_(ptr noundef nonnull align 8 dereferenceable(96) %37, ptr noundef nonnull align 8 dereferenceable(96) %7)
          to label %39 unwind label %51

39:                                               ; preds = %36
  call void @_ZN2cv3MatD1Ev(ptr noundef nonnull align 8 dereferenceable(96) %7) #11
  %40 = getelementptr inbounds %"class.cv::datasets::TRACK_vot", ptr %10, i32 0, i32 3
  %41 = load i32, ptr %40, align 4
  %42 = add nsw i32 %41, 1
  store i32 %42, ptr %40, align 4
  %43 = load ptr, ptr %5, align 8
  %44 = invoke noundef zeroext i1 @_ZNK2cv3Mat5emptyEv(ptr noundef nonnull align 8 dereferenceable(96) %43)
          to label %45 unwind label %47

45:                                               ; preds = %39
  %46 = xor i1 %44, true
  store i1 %46, ptr %3, align 1
  call void @_ZNSt7__cxx1112basic_stringIcSt11char_traitsIcESaIcEED1Ev(ptr noundef nonnull align 8 dereferenceable(32) %6) #11
  br label %56

47:                                               ; preds = %39, %23
  %48 = landingpad { ptr, i32 }
          cleanup
  %49 = extractvalue { ptr, i32 } %48, 0
  store ptr %49, ptr %8, align 8
  %50 = extractvalue { ptr, i32 } %48, 1
  store i32 %50, ptr %9, align 4
  br label %55

51:                                               ; preds = %36
  %52 = landingpad { ptr, i32 }
          cleanup
  %53 = extractvalue { ptr, i32 } %52, 0
  store ptr %53, ptr %8, align 8
  %54 = extractvalue { ptr, i32 } %52, 1
  store i32 %54, ptr %9, align 4
  call void @_ZN2cv3MatD1Ev(ptr noundef nonnull align 8 dereferenceable(96) %7) #11
  br label %55

55:                                               ; preds = %51, %47
  call void @_ZNSt7__cxx1112basic_stringIcSt11char_traitsIcESaIcEED1Ev(ptr noundef nonnull align 8 dereferenceable(32) %6) #11
  br label %58

56:                                               ; preds = %45, %22
  %57 = load i1, ptr %3, align 1
  ret i1 %57

58:                                               ; preds = %55
  %59 = load ptr, ptr %8, align 8
  %60 = load i32, ptr %9, align 4
  %61 = insertvalue { ptr, i32 } poison, ptr %59, 0
  %62 = insertvalue { ptr, i32 } %61, i32 %60, 1
  resume { ptr, i32 } %62
}