; Function Attrs: mustprogress uwtable
define hidden noundef zeroext i1 @_ZN2cv8datasets13TRACK_votImpl12getNextFrameERNS_3MatE(ptr nocapture noundef nonnull align 8 dereferenceable(136) %0, ptr noundef nonnull align 8 dereferenceable(96) %1) unnamed_addr #0 align 2 personality ptr @__gxx_personality_v0 {
  %3 = alloca %"class.std::__cxx11::basic_string", align 8
  %4 = alloca %"class.cv::Mat", align 8
  %5 = getelementptr inbounds i8, ptr %0, i64 132
  %6 = load i32, ptr %5, align 4
  %7 = getelementptr inbounds i8, ptr %0, i64 104
  %8 = getelementptr inbounds i8, ptr %0, i64 128
  %9 = load i32, ptr %8, align 8
  %10 = load ptr, ptr %7, align 8
  %11 = sext i32 %9 to i64
  %12 = getelementptr %"class.std::vector.19", ptr %10, i64 %11
  %13 = getelementptr i8, ptr %12, i64 -24
  %14 = getelementptr i8, ptr %12, i64 -16
  %15 = load ptr, ptr %14, align 8
  %16 = load ptr, ptr %13, align 8
  %17 = ptrtoint ptr %15 to i64
  %18 = ptrtoint ptr %16 to i64
  %19 = sub i64 %17, %18
  %20 = lshr exact i64 %19, 4
  %21 = trunc i64 %20 to i32
  %.not = icmp slt i32 %6, %21
  br i1 %.not, label %22, label %40

22:                                               ; preds = %2
  %23 = sext i32 %6 to i64
  %24 = getelementptr inbounds %"struct.cv::Ptr", ptr %16, i64 %23
  %25 = load ptr, ptr %24, align 8
  %26 = getelementptr inbounds i8, ptr %25, i64 8
  call void @_ZNSt7__cxx1112basic_stringIcSt11char_traitsIcESaIcEEC1ERKS4_(ptr noundef nonnull align 8 dereferenceable(32) %3, ptr noundef nonnull align 8 dereferenceable(32) %26)
  invoke void @_ZN2cv6imreadERKNSt7__cxx1112basic_stringIcSt11char_traitsIcESaIcEEEi(ptr dead_on_unwind nonnull writable sret(%"class.cv::Mat") align 8 %4, ptr noundef nonnull align 8 dereferenceable(32) %3, i32 noundef 1)
          to label %27 unwind label %35

27:                                               ; preds = %22
  %28 = invoke noundef nonnull align 8 dereferenceable(96) ptr @_ZN2cv3MataSEOS0_(ptr noundef nonnull align 8 dereferenceable(96) %1, ptr noundef nonnull align 8 dereferenceable(96) %4)
          to label %29 unwind label %37

29:                                               ; preds = %27
  call void @_ZN2cv3MatD1Ev(ptr noundef nonnull align 8 dereferenceable(96) %4) #18
  %30 = load i32, ptr %5, align 4
  %31 = add nsw i32 %30, 1
  store i32 %31, ptr %5, align 4
  %32 = invoke noundef zeroext i1 @_ZNK2cv3Mat5emptyEv(ptr noundef nonnull align 8 dereferenceable(96) %1)
          to label %33 unwind label %35

33:                                               ; preds = %29
  %34 = xor i1 %32, true
  call void @_ZNSt7__cxx1112basic_stringIcSt11char_traitsIcESaIcEED1Ev(ptr noundef nonnull align 8 dereferenceable(32) %3) #18
  br label %40

35:                                               ; preds = %29, %22
  %36 = landingpad { ptr, i32 }
          cleanup
  br label %39

37:                                               ; preds = %27
  %38 = landingpad { ptr, i32 }
          cleanup
  call void @_ZN2cv3MatD1Ev(ptr noundef nonnull align 8 dereferenceable(96) %4) #18
  br label %39

39:                                               ; preds = %37, %35
  %.pn = phi { ptr, i32 } [ %36, %35 ], [ %38, %37 ]
  call void @_ZNSt7__cxx1112basic_stringIcSt11char_traitsIcESaIcEED1Ev(ptr noundef nonnull align 8 dereferenceable(32) %3) #18
  resume { ptr, i32 } %.pn

40:                                               ; preds = %2, %33
  %.06 = phi i1 [ %34, %33 ], [ false, %2 ]
  ret i1 %.06
}